target datalayout = "e-m:e-p270:32:32-p271:32:32-p272:64:64-i64:64-i128:128-f80:128-n8:16:32:64-S128"
target triple = "x86_64-pc-linux-gnu"

%struct.QMetaObject = type { %struct.anon }
%struct.anon = type { %"struct.QMetaObject::SuperData", ptr, ptr, ptr, ptr, ptr }
%"struct.QMetaObject::SuperData" = type { ptr }
%class.QString = type { ptr }

@.str.8 = private unnamed_addr constant [4 x i8] c"X3D\00", align 1
@_ZN11IoX3DPlugin16staticMetaObjectE = external global %struct.QMetaObject, align 8

; Function Attrs: mustprogress nounwind uwtable
define linkonce_odr noundef i32 @_ZN3vcg3tri2io11ExporterX3DI6CMeshOE23GetExportMaskCapabilityEv() #4 comdat align 2 {
  %1 = alloca i32, align 4
  store i32 0, ptr %1, align 4
  %2 = load i32, ptr %1, align 4
  %3 = or i32 %2, 16
  store i32 %3, ptr %1, align 4
  %4 = load i32, ptr %1, align 4
  %5 = or i32 %4, 32
  store i32 %5, ptr %1, align 4
  %6 = load i32, ptr %1, align 4
  %7 = or i32 %6, 4
  store i32 %7, ptr %1, align 4
  %8 = load i32, ptr %1, align 4
  %9 = or i32 %8, 256
  store i32 %9, ptr %1, align 4
  %10 = load i32, ptr %1, align 4
  %11 = or i32 %10, 1024
  store i32 %11, ptr %1, align 4
  %12 = load i32, ptr %1, align 4
  %13 = or i32 %12, 4096
  store i32 %13, ptr %1, align 4
  %14 = load i32, ptr %1, align 4
  %15 = or i32 %14, 16384
  store i32 %15, ptr %1, align 4
  %16 = load i32, ptr %1, align 4
  %17 = or i32 %16, 2048
  store i32 %17, ptr %1, align 4
  %18 = load i32, ptr %1, align 4
  ret i32 %18
}

; Function Attrs: mustprogress uwtable
define linkonce_odr void @_ZN11IoX3DPlugin2trEPKcS1_i(ptr dead_on_unwind noalias writable sret(%class.QString) align 8 %0, ptr noundef %1, ptr noundef %2, i32 noundef %3) #5 comdat align 2 {
  %5 = alloca ptr, align 8
  %6 = alloca ptr, align 8
  %7 = alloca ptr, align 8
  %8 = alloca i32, align 4
  store ptr %0, ptr %5, align 8
  store ptr %1, ptr %6, align 8
  store ptr %2, ptr %7, align 8
  store i32 %3, ptr %8, align 4
  %9 = load ptr, ptr %6, align 8
  %10 = load ptr, ptr %7, align 8
  %11 = load i32, ptr %8, align 4
  call void @_ZNK11QMetaObject2trEPKcS1_i(ptr dead_on_unwind writable sret(%class.QString) align 8 %0, ptr noundef nonnull align 8 dereferenceable(48) @_ZN11IoX3DPlugin16staticMetaObjectE, ptr noundef %9, ptr noundef %10, i32 noundef %11)
  ret void
}

; Function Attrs: mustprogress uwtable
define linkonce_odr void @_ZNKR7QString7toUpperEv(ptr dead_on_unwind noalias writable sret(%class.QString) align 8 %0, ptr noundef nonnull align 8 dereferenceable(8) %1) #5 comdat align 2 {
  %3 = alloca ptr, align 8
  %4 = alloca ptr, align 8
  store ptr %0, ptr %3, align 8
  store ptr %1, ptr %4, align 8
  %5 = load ptr, ptr %4, align 8
  call void @_ZN7QString14toUpper_helperERKS_(ptr dead_on_unwind writable sret(%class.QString) align 8 %0, ptr noundef nonnull align 8 dereferenceable(8) %5)
  ret void
}

; Function Attrs: mustprogress uwtable
define void @_ZNK11IoX3DPlugin20exportMaskCapabilityERK7QStringRiS3_(ptr noundef nonnull align 8 dereferenceable(32) %0, ptr noundef nonnull align 8 dereferenceable(8) %1, ptr noundef nonnull align 4 dereferenceable(4) %2, ptr noundef nonnull align 4 dereferenceable(4) %3) unnamed_addr #5 align 2 personality ptr @__gxx_personality_v0 {
  %5 = alloca ptr, align 8
  %6 = alloca ptr, align 8
  %7 = alloca ptr, align 8
  %8 = alloca ptr, align 8
  %9 = alloca %class.QString, align 8
  %10 = alloca %class.QString, align 8
  %11 = alloca ptr, align 8
  %12 = alloca i32, align 4
  %13 = alloca i8, align 1
  %14 = alloca i8, align 1
  %15 = alloca i8, align 1
  %16 = alloca i8, align 1
  %17 = alloca i8, align 1
  %18 = alloca i8, align 1
  %19 = alloca i8, align 1
  %20 = alloca i8, align 1
  store ptr %0, ptr %5, align 8
  store ptr %1, ptr %6, align 8
  store ptr %2, ptr %7, align 8
  store ptr %3, ptr %8, align 8
  %21 = load ptr, ptr %6, align 8
  call void @_ZNKR7QString7toUpperEv(ptr dead_on_unwind writable sret(%class.QString) align 8 %9, ptr noundef nonnull align 8 dereferenceable(8) %21)
  invoke void @_ZN11IoX3DPlugin2trEPKcS1_i(ptr dead_on_unwind writable sret(%class.QString) align 8 %10, ptr noundef @.str.8, ptr noundef null, i32 noundef -1)
          to label %22 unwind label %79

22:                                               ; preds = %4
  %23 = call noundef zeroext i1 @_ZeqRK7QStringS1_(ptr noundef nonnull align 8 dereferenceable(8) %9, ptr noundef nonnull align 8 dereferenceable(8) %10) #3
  call void @_ZN7QStringD2Ev(ptr noundef nonnull align 8 dereferenceable(8) %10) #3
  call void @_ZN7QStringD2Ev(ptr noundef nonnull align 8 dereferenceable(8) %9) #3
  br i1 %23, label %24, label %140

24:                                               ; preds = %22
  %25 = call noundef i32 @_ZN3vcg3tri2io11ExporterX3DI6CMeshOE23GetExportMaskCapabilityEv()
  %26 = load ptr, ptr %7, align 8
  store i32 %25, ptr %26, align 4
  %27 = load ptr, ptr %7, align 8
  %28 = load i32, ptr %27, align 4
  %29 = and i32 %28, 4096
  %30 = icmp ne i32 %29, 0
  %31 = zext i1 %30 to i8
  store i8 %31, ptr %13, align 1
  %32 = load ptr, ptr %7, align 8
  %33 = load i32, ptr %32, align 4
  %34 = and i32 %33, 16384
  %35 = icmp ne i32 %34, 0
  %36 = zext i1 %35 to i8
  store i8 %36, ptr %14, align 1
  %37 = load ptr, ptr %7, align 8
  %38 = load i32, ptr %37, align 4
  %39 = and i32 %38, 2048
  %40 = icmp ne i32 %39, 0
  %41 = zext i1 %40 to i8
  store i8 %41, ptr %15, align 1
  %42 = load ptr, ptr %7, align 8
  %43 = load i32, ptr %42, align 4
  %44 = and i32 %43, 4
  %45 = icmp ne i32 %44, 0
  %46 = zext i1 %45 to i8
  store i8 %46, ptr %16, align 1
  %47 = load ptr, ptr %7, align 8
  %48 = load i32, ptr %47, align 4
  %49 = and i32 %48, 16
  %50 = icmp ne i32 %49, 0
  %51 = zext i1 %50 to i8
  store i8 %51, ptr %17, align 1
  %52 = load ptr, ptr %7, align 8
  %53 = load i32, ptr %52, align 4
  %54 = and i32 %53, 32
  %55 = icmp ne i32 %54, 0
  %56 = zext i1 %55 to i8
  store i8 %56, ptr %18, align 1
  %57 = load ptr, ptr %7, align 8
  %58 = load i32, ptr %57, align 4
  %59 = and i32 %58, 256
  %60 = icmp ne i32 %59, 0
  %61 = zext i1 %60 to i8
  store i8 %61, ptr %19, align 1
  %62 = load ptr, ptr %7, align 8
  %63 = load i32, ptr %62, align 4
  %64 = and i32 %63, 1024
  %65 = icmp ne i32 %64, 0
  %66 = zext i1 %65 to i8
  store i8 %66, ptr %20, align 1
  %67 = load ptr, ptr %7, align 8
  %68 = load i32, ptr %67, align 4
  %69 = load ptr, ptr %8, align 8
  store i32 %68, ptr %69, align 4
  %70 = load i8, ptr %13, align 1
  %71 = trunc i8 %70 to i1
  br i1 %71, label %72, label %83

72:                                               ; preds = %24
  %73 = load i8, ptr %18, align 1
  %74 = trunc i8 %73 to i1
  br i1 %74, label %75, label %83

75:                                               ; preds = %72
  %76 = load ptr, ptr %8, align 8
  %77 = load i32, ptr %76, align 4
  %78 = and i32 %77, -4097
  store i32 %78, ptr %76, align 4
  br label %83

79:                                               ; preds = %4
  %80 = landingpad { ptr, i32 }
          cleanup
  %81 = extractvalue { ptr, i32 } %80, 0
  store ptr %81, ptr %11, align 8
  %82 = extractvalue { ptr, i32 } %80, 1
  store i32 %82, ptr %12, align 4
  call void @_ZN7QStringD2Ev(ptr noundef nonnull align 8 dereferenceable(8) %9) #3
  br label %142

83:                                               ; preds = %75, %72, %24
  %84 = load i8, ptr %16, align 1
  %85 = trunc i8 %84 to i1
  br i1 %85, label %86, label %100

86:                                               ; preds = %83
  %87 = load i8, ptr %19, align 1
  %88 = trunc i8 %87 to i1
  br i1 %88, label %92, label %89

89:                                               ; preds = %86
  %90 = load i8, ptr %15, align 1
  %91 = trunc i8 %90 to i1
  br i1 %91, label %92, label %99

92:                                               ; preds = %89, %86
  %93 = load ptr, ptr %8, align 8
  %94 = load i32, ptr %93, align 4
  %95 = and i32 %94, -2049
  store i32 %95, ptr %93, align 4
  %96 = load ptr, ptr %8, align 8
  %97 = load i32, ptr %96, align 4
  %98 = and i32 %97, -257
  store i32 %98, ptr %96, align 4
  br label %99

99:                                               ; preds = %92, %89
  br label %111

100:                                              ; preds = %83
  %101 = load i8, ptr %19, align 1
  %102 = trunc i8 %101 to i1
  br i1 %102, label %103, label %110

103:                                              ; preds = %100
  %104 = load i8, ptr %15, align 1
  %105 = trunc i8 %104 to i1
  br i1 %105, label %106, label %110

106:                                              ; preds = %103
  %107 = load ptr, ptr %8, align 8
  %108 = load i32, ptr %107, align 4
  %109 = and i32 %108, -2049
  store i32 %109, ptr %107, align 4
  br label %110

110:                                              ; preds = %106, %103, %100
  br label %111

111:                                              ; preds = %110, %99
  %112 = load i8, ptr %17, align 1
  %113 = trunc i8 %112 to i1
  br i1 %113, label %114, label %128

114:                                              ; preds = %111
  %115 = load i8, ptr %20, align 1
  %116 = trunc i8 %115 to i1
  br i1 %116, label %120, label %117

117:                                              ; preds = %114
  %118 = load i8, ptr %14, align 1
  %119 = trunc i8 %118 to i1
  br i1 %119, label %120, label %127

120:                                              ; preds = %117, %114
  %121 = load ptr, ptr %8, align 8
  %122 = load i32, ptr %121, align 4
  %123 = and i32 %122, -16385
  store i32 %123, ptr %121, align 4
  %124 = load ptr, ptr %8, align 8
  %125 = load i32, ptr %124, align 4
  %126 = and i32 %125, -1025
  store i32 %126, ptr %124, align 4
  br label %127

127:                                              ; preds = %120, %117
  br label %139

128:                                              ; preds = %111
  %129 = load i8, ptr %20, align 1
  %130 = trunc i8 %129 to i1
  br i1 %130, label %131, label %138

131:                                              ; preds = %128
  %132 = load i8, ptr %14, align 1
  %133 = trunc i8 %132 to i1
  br i1 %133, label %134, label %138

134:                                              ; preds = %131
  %135 = load ptr, ptr %8, align 8
  %136 = load i32, ptr %135, align 4
  %137 = and i32 %136, -16385
  store i32 %137, ptr %135, align 4
  br label %138

138:                                              ; preds = %134, %131, %128
  br label %139

139:                                              ; preds = %138, %127
  br label %141

140:                                              ; preds = %22
  br label %141

141:                                              ; preds = %140, %139
  ret void

142:                                              ; preds = %79
  %143 = load ptr, ptr %11, align 8
  %144 = load i32, ptr %12, align 4
  %145 = insertvalue { ptr, i32 } poison, ptr %143, 0
  %146 = insertvalue { ptr, i32 } %145, i32 %144, 1
  resume { ptr, i32 } %146
}